; Function Attrs: mustprogress nounwind uwtable
define internal void @_ZN7testing8internal30ValuesInIteratorRangeGeneratorIN12_GLOBAL__N_19TestParamEE8IteratorD0Ev(ptr noundef nonnull align 8 dereferenceable(32) %this) unnamed_addr #4 align 2 personality ptr @__gxx_personality_v0 {
entry:
  store ptr getelementptr inbounds ({ [9 x ptr] }, ptr @_ZTVN7testing8internal30ValuesInIteratorRangeGeneratorIN12_GLOBAL__N_19TestParamEE8IteratorE, i64 0, i32 0, i64 2), ptr %this, align 8
  %value_.i = getelementptr inbounds i8, ptr %this, i64 24
  %0 = load ptr, ptr %value_.i, align 8
  %cmp.not.i.i = icmp eq ptr %0, null
  br i1 %cmp.not.i.i, label %_ZN7testing8internal30ValuesInIteratorRangeGeneratorIN12_GLOBAL__N_19TestParamEE8IteratorD2Ev.exit, label %_ZNKSt14default_deleteIKN12_GLOBAL__N_19TestParamEEclEPS2_.exit.i.i

_ZNKSt14default_deleteIKN12_GLOBAL__N_19TestParamEEclEPS2_.exit.i.i: ; preds = %entry
  tail call void @_ZdlPv(ptr noundef nonnull %0) #30
  br label %_ZN7testing8internal30ValuesInIteratorRangeGeneratorIN12_GLOBAL__N_19TestParamEE8IteratorD2Ev.exit

_ZN7testing8internal30ValuesInIteratorRangeGeneratorIN12_GLOBAL__N_19TestParamEE8IteratorD2Ev.exit: ; preds = %entry, %_ZNKSt14default_deleteIKN12_GLOBAL__N_19TestParamEEclEPS2_.exit.i.i
  tail call void @_ZdlPv(ptr noundef nonnull %this) #30
  ret void
}